target datalayout = "e-m:e-p270:32:32-p271:32:32-p272:64:64-i64:64-i128:128-f80:128-n8:16:32:64-S128"
target triple = "x86_64-pc-linux-gnu"

%struct.CodedBitstreamContext = type { ptr, ptr, ptr, ptr, i32, i32, i32, ptr, ptr, ptr, ptr, i64 }
%struct.VP9RawFrameHeader = type { i8, i8, i8, i8, i8, i8, i8, i8, i8, i8, i8, i8, i8, i8, i8, i8, [3 x i8], [4 x i8], i8, i8, i8, i8, [3 x i8], i16, i16, i8, i16, i16, i8, i8, i8, i8, i8, i8, [4 x i8], [4 x i8], [2 x i8], [2 x i8], i8, i8, i8, i8, i8, i8, [7 x i8], i8, [3 x i8], i8, i8, [8 x [4 x i8]], [8 x [4 x i8]], [8 x [4 x i8]], i8, i8, i16 }
%struct.CodedBitstreamVP9Context = type { i32, i16, i16, i16, i16, i32, i32, i8, i8, i32, [8 x %struct.VP9ReferenceFrameState] }
%struct.VP9ReferenceFrameState = type { i32, i32, i32, i32, i32 }

@.str.80 = private unnamed_addr constant [15 x i8] c"tile_cols_log2\00", align 1
@.str.81 = private unnamed_addr constant [15 x i8] c"tile_rows_log2\00", align 1

; Function Attrs: nounwind uwtable
define internal i32 @cbs_vp9_read_tile_info(ptr noundef %0, ptr noundef %1, ptr noundef %2) #0 {
  %4 = alloca i32, align 4
  %5 = alloca ptr, align 8
  %6 = alloca ptr, align 8
  %7 = alloca ptr, align 8
  %8 = alloca ptr, align 8
  %9 = alloca i32, align 4
  %10 = alloca i32, align 4
  %11 = alloca i32, align 4
  %12 = alloca i32, align 4
  %13 = alloca i32, align 4
  %14 = alloca i32, align 4
  store ptr %0, ptr %5, align 8, !tbaa !4
  store ptr %1, ptr %6, align 8, !tbaa !62
  store ptr %2, ptr %7, align 8, !tbaa !79
  call void @llvm.lifetime.start.p0(i64 8, ptr %8) #8
  %15 = load ptr, ptr %5, align 8, !tbaa !4
  %16 = getelementptr inbounds nuw %struct.CodedBitstreamContext, ptr %15, i32 0, i32 2
  %17 = load ptr, ptr %16, align 8, !tbaa !59
  store ptr %17, ptr %8, align 8, !tbaa !60
  call void @llvm.lifetime.start.p0(i64 4, ptr %9) #8
  call void @llvm.lifetime.start.p0(i64 4, ptr %10) #8
  call void @llvm.lifetime.start.p0(i64 4, ptr %11) #8
  store i32 0, ptr %9, align 4, !tbaa !11
  br label %18

18:                                               ; preds = %26, %3
  %19 = load i32, ptr %9, align 4, !tbaa !11
  %20 = shl i32 64, %19
  %21 = load ptr, ptr %8, align 8, !tbaa !60
  %22 = getelementptr inbounds nuw %struct.CodedBitstreamVP9Context, ptr %21, i32 0, i32 3
  %23 = load i16, ptr %22, align 4, !tbaa !126
  %24 = zext i16 %23 to i32
  %25 = icmp slt i32 %20, %24
  br i1 %25, label %26, label %29

26:                                               ; preds = %18
  %27 = load i32, ptr %9, align 4, !tbaa !11
  %28 = add nsw i32 %27, 1
  store i32 %28, ptr %9, align 4, !tbaa !11
  br label %18, !llvm.loop !154

29:                                               ; preds = %18
  store i32 0, ptr %10, align 4, !tbaa !11
  br label %30

30:                                               ; preds = %39, %29
  %31 = load ptr, ptr %8, align 8, !tbaa !60
  %32 = getelementptr inbounds nuw %struct.CodedBitstreamVP9Context, ptr %31, i32 0, i32 3
  %33 = load i16, ptr %32, align 4, !tbaa !126
  %34 = zext i16 %33 to i32
  %35 = load i32, ptr %10, align 4, !tbaa !11
  %36 = add nsw i32 %35, 1
  %37 = ashr i32 %34, %36
  %38 = icmp sge i32 %37, 4
  br i1 %38, label %39, label %42

39:                                               ; preds = %30
  %40 = load i32, ptr %10, align 4, !tbaa !11
  %41 = add nsw i32 %40, 1
  store i32 %41, ptr %10, align 4, !tbaa !11
  br label %30, !llvm.loop !155

42:                                               ; preds = %30
  br label %43

43:                                               ; preds = %42
  call void @llvm.lifetime.start.p0(i64 4, ptr %12) #8
  br label %44

44:                                               ; preds = %43
  %45 = load ptr, ptr %5, align 8, !tbaa !4
  %46 = load ptr, ptr %6, align 8, !tbaa !62
  %47 = load i32, ptr %9, align 4, !tbaa !11
  %48 = load i32, ptr %10, align 4, !tbaa !11
  %49 = call i32 @cbs_vp9_read_increment(ptr noundef %45, ptr noundef %46, i32 noundef %47, i32 noundef %48, ptr noundef @.str.80, ptr noundef %12)
  store i32 %49, ptr %11, align 4, !tbaa !11
  %50 = load i32, ptr %11, align 4, !tbaa !11
  %51 = icmp slt i32 %50, 0
  br i1 %51, label %52, label %54

52:                                               ; preds = %44
  %53 = load i32, ptr %11, align 4, !tbaa !11
  store i32 %53, ptr %4, align 4
  store i32 1, ptr %13, align 4
  br label %61

54:                                               ; preds = %44
  br label %55

55:                                               ; preds = %54
  br label %56

56:                                               ; preds = %55
  %57 = load i32, ptr %12, align 4, !tbaa !11
  %58 = trunc i32 %57 to i8
  %59 = load ptr, ptr %7, align 8, !tbaa !79
  %60 = getelementptr inbounds nuw %struct.VP9RawFrameHeader, ptr %59, i32 0, i32 52
  store i8 %58, ptr %60, align 1, !tbaa !117
  store i32 0, ptr %13, align 4
  br label %61

61:                                               ; preds = %56, %52
  call void @llvm.lifetime.end.p0(i64 4, ptr %12) #8
  %62 = load i32, ptr %13, align 4
  switch i32 %62, label %87 [
    i32 0, label %63
  ]

63:                                               ; preds = %61
  br label %64

64:                                               ; preds = %63
  br label %65

65:                                               ; preds = %64
  br label %66

66:                                               ; preds = %65
  call void @llvm.lifetime.start.p0(i64 4, ptr %14) #8
  br label %67

67:                                               ; preds = %66
  %68 = load ptr, ptr %5, align 8, !tbaa !4
  %69 = load ptr, ptr %6, align 8, !tbaa !62
  %70 = call i32 @cbs_vp9_read_increment(ptr noundef %68, ptr noundef %69, i32 noundef 0, i32 noundef 2, ptr noundef @.str.81, ptr noundef %14)
  store i32 %70, ptr %11, align 4, !tbaa !11
  %71 = load i32, ptr %11, align 4, !tbaa !11
  %72 = icmp slt i32 %71, 0
  br i1 %72, label %73, label %75

73:                                               ; preds = %67
  %74 = load i32, ptr %11, align 4, !tbaa !11
  store i32 %74, ptr %4, align 4
  store i32 1, ptr %13, align 4
  br label %82

75:                                               ; preds = %67
  br label %76

76:                                               ; preds = %75
  br label %77

77:                                               ; preds = %76
  %78 = load i32, ptr %14, align 4, !tbaa !11
  %79 = trunc i32 %78 to i8
  %80 = load ptr, ptr %7, align 8, !tbaa !79
  %81 = getelementptr inbounds nuw %struct.VP9RawFrameHeader, ptr %80, i32 0, i32 53
  store i8 %79, ptr %81, align 2, !tbaa !118
  store i32 0, ptr %13, align 4
  br label %82

82:                                               ; preds = %77, %73
  call void @llvm.lifetime.end.p0(i64 4, ptr %14) #8
  %83 = load i32, ptr %13, align 4
  switch i32 %83, label %87 [
    i32 0, label %84
  ]

84:                                               ; preds = %82
  br label %85

85:                                               ; preds = %84
  br label %86

86:                                               ; preds = %85
  store i32 0, ptr %4, align 4
  store i32 1, ptr %13, align 4
  br label %87

87:                                               ; preds = %86, %82, %61
  call void @llvm.lifetime.end.p0(i64 4, ptr %11) #8
  call void @llvm.lifetime.end.p0(i64 4, ptr %10) #8
  call void @llvm.lifetime.end.p0(i64 4, ptr %9) #8
  call void @llvm.lifetime.end.p0(i64 8, ptr %8) #8
  %88 = load i32, ptr %4, align 4
  ret i32 %88
}