; Function Attrs: nounwind uwtable
define internal fastcc range(i32 -1094995529, 1) i32 @cbs_vp9_read_tile_info(ptr noundef readonly captures(none) %0, ptr noundef nonnull captures(none) %1, ptr noundef writeonly captures(none) %2) unnamed_addr #0 {
  %4 = alloca i32, align 4
  %5 = alloca i32, align 4
  %6 = getelementptr inbounds nuw i8, ptr %0, i64 16
  %7 = load ptr, ptr %6, align 8, !tbaa !41
  %8 = getelementptr inbounds nuw i8, ptr %7, i64 8
  %9 = load i16, ptr %8, align 4, !tbaa !109
  %10 = zext i16 %9 to i32
  br label %11

11:                                               ; preds = %11, %3
  %.023 = phi i32 [ 0, %3 ], [ %14, %11 ]
  %12 = shl i32 64, %.023
  %13 = icmp slt i32 %12, %10
  %14 = add nuw nsw i32 %.023, 1
  br i1 %13, label %11, label %.preheader, !llvm.loop !142

.preheader:                                       ; preds = %11, %.preheader
  %.022 = phi i32 [ %15, %.preheader ], [ 0, %11 ]
  %15 = add nuw nsw i32 %.022, 1
  %16 = lshr i32 %10, %15
  %17 = icmp samesign ugt i32 %16, 3
  br i1 %17, label %.preheader, label %18, !llvm.loop !143

18:                                               ; preds = %.preheader
  call void @llvm.lifetime.start.p0(i64 4, ptr nonnull %4) #8
  %19 = call fastcc i32 @cbs_vp9_read_increment(ptr noundef nonnull %0, ptr noundef %1, i32 noundef %.023, i32 noundef %.022, ptr noundef nonnull @.str.80, ptr noundef %4)
  %20 = icmp sgt i32 %19, -1
  br i1 %20, label %21, label %.critedge

21:                                               ; preds = %18
  %22 = load i32, ptr %4, align 4, !tbaa !22
  %23 = trunc i32 %22 to i8
  %24 = getelementptr inbounds nuw i8, ptr %2, i64 173
  store i8 %23, ptr %24, align 1, !tbaa !73
  call void @llvm.lifetime.end.p0(i64 4, ptr nonnull %4) #8
  call void @llvm.lifetime.start.p0(i64 4, ptr nonnull %5) #8
  %25 = call fastcc i32 @cbs_vp9_read_increment(ptr noundef nonnull %0, ptr noundef %1, i32 noundef 0, i32 noundef 2, ptr noundef nonnull @.str.81, ptr noundef %5)
  %26 = icmp sgt i32 %25, -1
  br i1 %26, label %27, label %31

27:                                               ; preds = %21
  %28 = load i32, ptr %5, align 4, !tbaa !22
  %29 = trunc i32 %28 to i8
  %30 = getelementptr inbounds nuw i8, ptr %2, i64 174
  store i8 %29, ptr %30, align 2, !tbaa !74
  br label %31

31:                                               ; preds = %21, %27
  call void @llvm.lifetime.end.p0(i64 4, ptr nonnull %5) #8
  br label %32

.critedge:                                        ; preds = %18
  call void @llvm.lifetime.end.p0(i64 4, ptr nonnull %4) #8
  br label %32

32:                                               ; preds = %31, %.critedge
  %.125 = phi i32 [ %19, %.critedge ], [ %25, %31 ]
  ret i32 %.125
}